target datalayout = "e-m:e-p270:32:32-p271:32:32-p272:64:64-i64:64-i128:128-f80:128-n8:16:32:64-S128"
target triple = "x86_64-pc-linux-gnu"

%struct.yyguts_t = type { ptr, ptr, ptr, i64, i64, ptr, i8, i32, i32, ptr, i32, i32, i32, i32, i32, ptr, i32, ptr, i32, i32, ptr, i32, i32, ptr }
%struct.yy_buffer_state = type { ptr, ptr, ptr, i32, i32, i32, i32, i32, i32, i32, i32, i32 }

@.str.18 = private unnamed_addr constant [49 x i8] c"out of dynamic memory in yyensure_buffer_stack()\00", align 1

; Function Attrs: nounwind uwtable
define dso_local void @replication_yy_flush_buffer(ptr noundef %0, ptr noundef %1) #0 {
  %3 = alloca ptr, align 8
  %4 = alloca ptr, align 8
  %5 = alloca ptr, align 8
  %6 = alloca i32, align 4
  store ptr %0, ptr %3, align 8
  store ptr %1, ptr %4, align 8
  call void @llvm.lifetime.start.p0(i64 8, ptr %5) #10
  %7 = load ptr, ptr %4, align 8
  store ptr %7, ptr %5, align 8
  %8 = load ptr, ptr %3, align 8
  %9 = icmp ne ptr %8, null
  br i1 %9, label %11, label %10

10:                                               ; preds = %2
  store i32 1, ptr %6, align 4
  br label %53

11:                                               ; preds = %2
  %12 = load ptr, ptr %3, align 8
  %13 = getelementptr inbounds nuw %struct.yy_buffer_state, ptr %12, i32 0, i32 4
  store i32 0, ptr %13, align 4
  %14 = load ptr, ptr %3, align 8
  %15 = getelementptr inbounds nuw %struct.yy_buffer_state, ptr %14, i32 0, i32 1
  %16 = load ptr, ptr %15, align 8
  %17 = getelementptr inbounds i8, ptr %16, i64 0
  store i8 0, ptr %17, align 1
  %18 = load ptr, ptr %3, align 8
  %19 = getelementptr inbounds nuw %struct.yy_buffer_state, ptr %18, i32 0, i32 1
  %20 = load ptr, ptr %19, align 8
  %21 = getelementptr inbounds i8, ptr %20, i64 1
  store i8 0, ptr %21, align 1
  %22 = load ptr, ptr %3, align 8
  %23 = getelementptr inbounds nuw %struct.yy_buffer_state, ptr %22, i32 0, i32 1
  %24 = load ptr, ptr %23, align 8
  %25 = getelementptr inbounds i8, ptr %24, i64 0
  %26 = load ptr, ptr %3, align 8
  %27 = getelementptr inbounds nuw %struct.yy_buffer_state, ptr %26, i32 0, i32 2
  store ptr %25, ptr %27, align 8
  %28 = load ptr, ptr %3, align 8
  %29 = getelementptr inbounds nuw %struct.yy_buffer_state, ptr %28, i32 0, i32 7
  store i32 1, ptr %29, align 8
  %30 = load ptr, ptr %3, align 8
  %31 = getelementptr inbounds nuw %struct.yy_buffer_state, ptr %30, i32 0, i32 11
  store i32 0, ptr %31, align 8
  %32 = load ptr, ptr %3, align 8
  %33 = load ptr, ptr %5, align 8
  %34 = getelementptr inbounds nuw %struct.yyguts_t, ptr %33, i32 0, i32 5
  %35 = load ptr, ptr %34, align 8
  %36 = icmp ne ptr %35, null
  br i1 %36, label %37, label %46

37:                                               ; preds = %11
  %38 = load ptr, ptr %5, align 8
  %39 = getelementptr inbounds nuw %struct.yyguts_t, ptr %38, i32 0, i32 5
  %40 = load ptr, ptr %39, align 8
  %41 = load ptr, ptr %5, align 8
  %42 = getelementptr inbounds nuw %struct.yyguts_t, ptr %41, i32 0, i32 3
  %43 = load i64, ptr %42, align 8
  %44 = getelementptr inbounds nuw ptr, ptr %40, i64 %43
  %45 = load ptr, ptr %44, align 8
  br label %47

46:                                               ; preds = %11
  br label %47

47:                                               ; preds = %46, %37
  %48 = phi ptr [ %45, %37 ], [ null, %46 ]
  %49 = icmp eq ptr %32, %48
  br i1 %49, label %50, label %52

50:                                               ; preds = %47
  %51 = load ptr, ptr %4, align 8
  call void @replication_yy_load_buffer_state(ptr noundef %51)
  br label %52

52:                                               ; preds = %50, %47
  store i32 0, ptr %6, align 4
  br label %53

53:                                               ; preds = %52, %10
  call void @llvm.lifetime.end.p0(i64 8, ptr %5) #10
  %54 = load i32, ptr %6, align 4
  switch i32 %54, label %56 [
    i32 0, label %55
    i32 1, label %55
  ]

55:                                               ; preds = %53, %53
  ret void

56:                                               ; preds = %53
  unreachable
}

; Function Attrs: nounwind uwtable
define dso_local ptr @replication_yyrealloc(ptr noundef %0, i64 noundef %1, ptr noundef %2) #0 {
  %4 = alloca ptr, align 8
  %5 = alloca ptr, align 8
  %6 = alloca i64, align 8
  %7 = alloca ptr, align 8
  store ptr %0, ptr %5, align 8
  store i64 %1, ptr %6, align 8
  store ptr %2, ptr %7, align 8
  %8 = load ptr, ptr %5, align 8
  %9 = icmp ne ptr %8, null
  br i1 %9, label %10, label %14

10:                                               ; preds = %3
  %11 = load ptr, ptr %5, align 8
  %12 = load i64, ptr %6, align 8
  %13 = call ptr @repalloc(ptr noundef %11, i64 noundef %12)
  store ptr %13, ptr %4, align 8
  br label %17

14:                                               ; preds = %3
  %15 = load i64, ptr %6, align 8
  %16 = call ptr @palloc(i64 noundef %15)
  store ptr %16, ptr %4, align 8
  br label %17

17:                                               ; preds = %14, %10
  %18 = load ptr, ptr %4, align 8
  ret ptr %18
}

; Function Attrs: nounwind uwtable
define dso_local ptr @replication_yyalloc(i64 noundef %0, ptr noundef %1) #0 {
  %3 = alloca i64, align 8
  %4 = alloca ptr, align 8
  store i64 %0, ptr %3, align 8
  store ptr %1, ptr %4, align 8
  %5 = load i64, ptr %3, align 8
  %6 = call ptr @palloc(i64 noundef %5)
  ret ptr %6
}

; Function Attrs: nounwind uwtable
define internal void @replication_yy_load_buffer_state(ptr noundef %0) #0 {
  %2 = alloca ptr, align 8
  %3 = alloca ptr, align 8
  store ptr %0, ptr %2, align 8
  call void @llvm.lifetime.start.p0(i64 8, ptr %3) #10
  %4 = load ptr, ptr %2, align 8
  store ptr %4, ptr %3, align 8
  %5 = load ptr, ptr %3, align 8
  %6 = getelementptr inbounds nuw %struct.yyguts_t, ptr %5, i32 0, i32 5
  %7 = load ptr, ptr %6, align 8
  %8 = load ptr, ptr %3, align 8
  %9 = getelementptr inbounds nuw %struct.yyguts_t, ptr %8, i32 0, i32 3
  %10 = load i64, ptr %9, align 8
  %11 = getelementptr inbounds nuw ptr, ptr %7, i64 %10
  %12 = load ptr, ptr %11, align 8
  %13 = getelementptr inbounds nuw %struct.yy_buffer_state, ptr %12, i32 0, i32 4
  %14 = load i32, ptr %13, align 4
  %15 = load ptr, ptr %3, align 8
  %16 = getelementptr inbounds nuw %struct.yyguts_t, ptr %15, i32 0, i32 7
  store i32 %14, ptr %16, align 4
  %17 = load ptr, ptr %3, align 8
  %18 = getelementptr inbounds nuw %struct.yyguts_t, ptr %17, i32 0, i32 5
  %19 = load ptr, ptr %18, align 8
  %20 = load ptr, ptr %3, align 8
  %21 = getelementptr inbounds nuw %struct.yyguts_t, ptr %20, i32 0, i32 3
  %22 = load i64, ptr %21, align 8
  %23 = getelementptr inbounds nuw ptr, ptr %19, i64 %22
  %24 = load ptr, ptr %23, align 8
  %25 = getelementptr inbounds nuw %struct.yy_buffer_state, ptr %24, i32 0, i32 2
  %26 = load ptr, ptr %25, align 8
  %27 = load ptr, ptr %3, align 8
  %28 = getelementptr inbounds nuw %struct.yyguts_t, ptr %27, i32 0, i32 9
  store ptr %26, ptr %28, align 8
  %29 = load ptr, ptr %3, align 8
  %30 = getelementptr inbounds nuw %struct.yyguts_t, ptr %29, i32 0, i32 20
  store ptr %26, ptr %30, align 8
  %31 = load ptr, ptr %3, align 8
  %32 = getelementptr inbounds nuw %struct.yyguts_t, ptr %31, i32 0, i32 5
  %33 = load ptr, ptr %32, align 8
  %34 = load ptr, ptr %3, align 8
  %35 = getelementptr inbounds nuw %struct.yyguts_t, ptr %34, i32 0, i32 3
  %36 = load i64, ptr %35, align 8
  %37 = getelementptr inbounds nuw ptr, ptr %33, i64 %36
  %38 = load ptr, ptr %37, align 8
  %39 = getelementptr inbounds nuw %struct.yy_buffer_state, ptr %38, i32 0, i32 0
  %40 = load ptr, ptr %39, align 8
  %41 = load ptr, ptr %3, align 8
  %42 = getelementptr inbounds nuw %struct.yyguts_t, ptr %41, i32 0, i32 1
  store ptr %40, ptr %42, align 8
  %43 = load ptr, ptr %3, align 8
  %44 = getelementptr inbounds nuw %struct.yyguts_t, ptr %43, i32 0, i32 9
  %45 = load ptr, ptr %44, align 8
  %46 = load i8, ptr %45, align 1
  %47 = load ptr, ptr %3, align 8
  %48 = getelementptr inbounds nuw %struct.yyguts_t, ptr %47, i32 0, i32 6
  store i8 %46, ptr %48, align 8
  call void @llvm.lifetime.end.p0(i64 8, ptr %3) #10
  ret void
}

; Function Attrs: nounwind uwtable
define internal void @replication_yy_init_buffer(ptr noundef %0, ptr noundef %1, ptr noundef %2) #0 {
  %4 = alloca ptr, align 8
  %5 = alloca ptr, align 8
  %6 = alloca ptr, align 8
  %7 = alloca i32, align 4
  %8 = alloca ptr, align 8
  store ptr %0, ptr %4, align 8
  store ptr %1, ptr %5, align 8
  store ptr %2, ptr %6, align 8
  call void @llvm.lifetime.start.p0(i64 4, ptr %7) #10
  %9 = call ptr @__errno_location() #15
  %10 = load i32, ptr %9, align 4
  store i32 %10, ptr %7, align 4
  call void @llvm.lifetime.start.p0(i64 8, ptr %8) #10
  %11 = load ptr, ptr %6, align 8
  store ptr %11, ptr %8, align 8
  %12 = load ptr, ptr %4, align 8
  %13 = load ptr, ptr %6, align 8
  call void @replication_yy_flush_buffer(ptr noundef %12, ptr noundef %13)
  %14 = load ptr, ptr %5, align 8
  %15 = load ptr, ptr %4, align 8
  %16 = getelementptr inbounds nuw %struct.yy_buffer_state, ptr %15, i32 0, i32 0
  store ptr %14, ptr %16, align 8
  %17 = load ptr, ptr %4, align 8
  %18 = getelementptr inbounds nuw %struct.yy_buffer_state, ptr %17, i32 0, i32 10
  store i32 1, ptr %18, align 4
  %19 = load ptr, ptr %4, align 8
  %20 = load ptr, ptr %8, align 8
  %21 = getelementptr inbounds nuw %struct.yyguts_t, ptr %20, i32 0, i32 5
  %22 = load ptr, ptr %21, align 8
  %23 = icmp ne ptr %22, null
  br i1 %23, label %24, label %33

24:                                               ; preds = %3
  %25 = load ptr, ptr %8, align 8
  %26 = getelementptr inbounds nuw %struct.yyguts_t, ptr %25, i32 0, i32 5
  %27 = load ptr, ptr %26, align 8
  %28 = load ptr, ptr %8, align 8
  %29 = getelementptr inbounds nuw %struct.yyguts_t, ptr %28, i32 0, i32 3
  %30 = load i64, ptr %29, align 8
  %31 = getelementptr inbounds nuw ptr, ptr %27, i64 %30
  %32 = load ptr, ptr %31, align 8
  br label %34

33:                                               ; preds = %3
  br label %34

34:                                               ; preds = %33, %24
  %35 = phi ptr [ %32, %24 ], [ null, %33 ]
  %36 = icmp ne ptr %19, %35
  br i1 %36, label %37, label %42

37:                                               ; preds = %34
  %38 = load ptr, ptr %4, align 8
  %39 = getelementptr inbounds nuw %struct.yy_buffer_state, ptr %38, i32 0, i32 8
  store i32 1, ptr %39, align 4
  %40 = load ptr, ptr %4, align 8
  %41 = getelementptr inbounds nuw %struct.yy_buffer_state, ptr %40, i32 0, i32 9
  store i32 0, ptr %41, align 8
  br label %42

42:                                               ; preds = %37, %34
  %43 = load ptr, ptr %4, align 8
  %44 = getelementptr inbounds nuw %struct.yy_buffer_state, ptr %43, i32 0, i32 6
  store i32 0, ptr %44, align 4
  %45 = load i32, ptr %7, align 4
  %46 = call ptr @__errno_location() #15
  store i32 %45, ptr %46, align 4
  call void @llvm.lifetime.end.p0(i64 8, ptr %8) #10
  call void @llvm.lifetime.end.p0(i64 4, ptr %7) #10
  ret void
}

; Function Attrs: nounwind uwtable
define internal void @replication_yyensure_buffer_stack(ptr noundef %0) #0 {
  %2 = alloca ptr, align 8
  %3 = alloca i64, align 8
  %4 = alloca ptr, align 8
  %5 = alloca i32, align 4
  %6 = alloca i64, align 8
  store ptr %0, ptr %2, align 8
  call void @llvm.lifetime.start.p0(i64 8, ptr %3) #10
  call void @llvm.lifetime.start.p0(i64 8, ptr %4) #10
  %7 = load ptr, ptr %2, align 8
  store ptr %7, ptr %4, align 8
  %8 = load ptr, ptr %4, align 8
  %9 = getelementptr inbounds nuw %struct.yyguts_t, ptr %8, i32 0, i32 5
  %10 = load ptr, ptr %9, align 8
  %11 = icmp ne ptr %10, null
  br i1 %11, label %36, label %12

12:                                               ; preds = %1
  store i64 1, ptr %3, align 8
  %13 = load i64, ptr %3, align 8
  %14 = mul i64 %13, 8
  %15 = load ptr, ptr %2, align 8
  %16 = call ptr @replication_yyalloc(i64 noundef %14, ptr noundef %15)
  %17 = load ptr, ptr %4, align 8
  %18 = getelementptr inbounds nuw %struct.yyguts_t, ptr %17, i32 0, i32 5
  store ptr %16, ptr %18, align 8
  %19 = load ptr, ptr %4, align 8
  %20 = getelementptr inbounds nuw %struct.yyguts_t, ptr %19, i32 0, i32 5
  %21 = load ptr, ptr %20, align 8
  %22 = icmp ne ptr %21, null
  br i1 %22, label %25, label %23

23:                                               ; preds = %12
  %24 = load ptr, ptr %2, align 8
  call void @yy_fatal_error(ptr noundef @.str.18, ptr noundef %24) #11
  unreachable

25:                                               ; preds = %12
  %26 = load ptr, ptr %4, align 8
  %27 = getelementptr inbounds nuw %struct.yyguts_t, ptr %26, i32 0, i32 5
  %28 = load ptr, ptr %27, align 8
  %29 = load i64, ptr %3, align 8
  %30 = mul i64 %29, 8
  call void @llvm.memset.p0.i64(ptr align 8 %28, i8 0, i64 %30, i1 false)
  %31 = load i64, ptr %3, align 8
  %32 = load ptr, ptr %4, align 8
  %33 = getelementptr inbounds nuw %struct.yyguts_t, ptr %32, i32 0, i32 4
  store i64 %31, ptr %33, align 8
  %34 = load ptr, ptr %4, align 8
  %35 = getelementptr inbounds nuw %struct.yyguts_t, ptr %34, i32 0, i32 3
  store i64 0, ptr %35, align 8
  store i32 1, ptr %5, align 4
  br label %80

36:                                               ; preds = %1
  %37 = load ptr, ptr %4, align 8
  %38 = getelementptr inbounds nuw %struct.yyguts_t, ptr %37, i32 0, i32 3
  %39 = load i64, ptr %38, align 8
  %40 = load ptr, ptr %4, align 8
  %41 = getelementptr inbounds nuw %struct.yyguts_t, ptr %40, i32 0, i32 4
  %42 = load i64, ptr %41, align 8
  %43 = sub i64 %42, 1
  %44 = icmp uge i64 %39, %43
  br i1 %44, label %45, label %79

45:                                               ; preds = %36
  call void @llvm.lifetime.start.p0(i64 8, ptr %6) #10
  store i64 8, ptr %6, align 8
  %46 = load ptr, ptr %4, align 8
  %47 = getelementptr inbounds nuw %struct.yyguts_t, ptr %46, i32 0, i32 4
  %48 = load i64, ptr %47, align 8
  %49 = load i64, ptr %6, align 8
  %50 = add i64 %48, %49
  store i64 %50, ptr %3, align 8
  %51 = load ptr, ptr %4, align 8
  %52 = getelementptr inbounds nuw %struct.yyguts_t, ptr %51, i32 0, i32 5
  %53 = load ptr, ptr %52, align 8
  %54 = load i64, ptr %3, align 8
  %55 = mul i64 %54, 8
  %56 = load ptr, ptr %2, align 8
  %57 = call ptr @replication_yyrealloc(ptr noundef %53, i64 noundef %55, ptr noundef %56)
  %58 = load ptr, ptr %4, align 8
  %59 = getelementptr inbounds nuw %struct.yyguts_t, ptr %58, i32 0, i32 5
  store ptr %57, ptr %59, align 8
  %60 = load ptr, ptr %4, align 8
  %61 = getelementptr inbounds nuw %struct.yyguts_t, ptr %60, i32 0, i32 5
  %62 = load ptr, ptr %61, align 8
  %63 = icmp ne ptr %62, null
  br i1 %63, label %66, label %64

64:                                               ; preds = %45
  %65 = load ptr, ptr %2, align 8
  call void @yy_fatal_error(ptr noundef @.str.18, ptr noundef %65) #11
  unreachable

66:                                               ; preds = %45
  %67 = load ptr, ptr %4, align 8
  %68 = getelementptr inbounds nuw %struct.yyguts_t, ptr %67, i32 0, i32 5
  %69 = load ptr, ptr %68, align 8
  %70 = load ptr, ptr %4, align 8
  %71 = getelementptr inbounds nuw %struct.yyguts_t, ptr %70, i32 0, i32 4
  %72 = load i64, ptr %71, align 8
  %73 = getelementptr inbounds nuw ptr, ptr %69, i64 %72
  %74 = load i64, ptr %6, align 8
  %75 = mul i64 %74, 8
  call void @llvm.memset.p0.i64(ptr align 8 %73, i8 0, i64 %75, i1 false)
  %76 = load i64, ptr %3, align 8
  %77 = load ptr, ptr %4, align 8
  %78 = getelementptr inbounds nuw %struct.yyguts_t, ptr %77, i32 0, i32 4
  store i64 %76, ptr %78, align 8
  call void @llvm.lifetime.end.p0(i64 8, ptr %6) #10
  br label %79

79:                                               ; preds = %66, %36
  store i32 0, ptr %5, align 4
  br label %80

80:                                               ; preds = %79, %25
  call void @llvm.lifetime.end.p0(i64 8, ptr %4) #10
  call void @llvm.lifetime.end.p0(i64 8, ptr %3) #10
  %81 = load i32, ptr %5, align 4
  switch i32 %81, label %83 [
    i32 0, label %82
    i32 1, label %82
  ]

82:                                               ; preds = %80, %80
  ret void

83:                                               ; preds = %80
  unreachable
}

; Function Attrs: nounwind uwtable
define dso_local void @replication_yyrestart(ptr noundef %0, ptr noundef %1) #0 {
  %3 = alloca ptr, align 8
  %4 = alloca ptr, align 8
  %5 = alloca ptr, align 8
  store ptr %0, ptr %3, align 8
  store ptr %1, ptr %4, align 8
  call void @llvm.lifetime.start.p0(i64 8, ptr %5) #10
  %6 = load ptr, ptr %4, align 8
  store ptr %6, ptr %5, align 8
  %7 = load ptr, ptr %5, align 8
  %8 = getelementptr inbounds nuw %struct.yyguts_t, ptr %7, i32 0, i32 5
  %9 = load ptr, ptr %8, align 8
  %10 = icmp ne ptr %9, null
  br i1 %10, label %11, label %21

11:                                               ; preds = %2
  %12 = load ptr, ptr %5, align 8
  %13 = getelementptr inbounds nuw %struct.yyguts_t, ptr %12, i32 0, i32 5
  %14 = load ptr, ptr %13, align 8
  %15 = load ptr, ptr %5, align 8
  %16 = getelementptr inbounds nuw %struct.yyguts_t, ptr %15, i32 0, i32 3
  %17 = load i64, ptr %16, align 8
  %18 = getelementptr inbounds nuw ptr, ptr %14, i64 %17
  %19 = load ptr, ptr %18, align 8
  %20 = icmp ne ptr %19, null
  br i1 %20, label %36, label %22

21:                                               ; preds = %2
  br i1 false, label %36, label %22

22:                                               ; preds = %21, %11
  %23 = load ptr, ptr %4, align 8
  call void @replication_yyensure_buffer_stack(ptr noundef %23)
  %24 = load ptr, ptr %5, align 8
  %25 = getelementptr inbounds nuw %struct.yyguts_t, ptr %24, i32 0, i32 1
  %26 = load ptr, ptr %25, align 8
  %27 = load ptr, ptr %4, align 8
  %28 = call ptr @replication_yy_create_buffer(ptr noundef %26, i32 noundef 16384, ptr noundef %27)
  %29 = load ptr, ptr %5, align 8
  %30 = getelementptr inbounds nuw %struct.yyguts_t, ptr %29, i32 0, i32 5
  %31 = load ptr, ptr %30, align 8
  %32 = load ptr, ptr %5, align 8
  %33 = getelementptr inbounds nuw %struct.yyguts_t, ptr %32, i32 0, i32 3
  %34 = load i64, ptr %33, align 8
  %35 = getelementptr inbounds nuw ptr, ptr %31, i64 %34
  store ptr %28, ptr %35, align 8
  br label %36

36:                                               ; preds = %22, %21, %11
  %37 = load ptr, ptr %5, align 8
  %38 = getelementptr inbounds nuw %struct.yyguts_t, ptr %37, i32 0, i32 5
  %39 = load ptr, ptr %38, align 8
  %40 = icmp ne ptr %39, null
  br i1 %40, label %41, label %50

41:                                               ; preds = %36
  %42 = load ptr, ptr %5, align 8
  %43 = getelementptr inbounds nuw %struct.yyguts_t, ptr %42, i32 0, i32 5
  %44 = load ptr, ptr %43, align 8
  %45 = load ptr, ptr %5, align 8
  %46 = getelementptr inbounds nuw %struct.yyguts_t, ptr %45, i32 0, i32 3
  %47 = load i64, ptr %46, align 8
  %48 = getelementptr inbounds nuw ptr, ptr %44, i64 %47
  %49 = load ptr, ptr %48, align 8
  br label %51

50:                                               ; preds = %36
  br label %51

51:                                               ; preds = %50, %41
  %52 = phi ptr [ %49, %41 ], [ null, %50 ]
  %53 = load ptr, ptr %3, align 8
  %54 = load ptr, ptr %4, align 8
  call void @replication_yy_init_buffer(ptr noundef %52, ptr noundef %53, ptr noundef %54)
  %55 = load ptr, ptr %4, align 8
  call void @replication_yy_load_buffer_state(ptr noundef %55)
  call void @llvm.lifetime.end.p0(i64 8, ptr %5) #10
  ret void
}